target datalayout = "e-m:e-p270:32:32-p271:32:32-p272:64:64-i64:64-i128:128-f80:128-n8:16:32:64-S128"
target triple = "x86_64-unknown-linux-gnu"

%struct.Chardev = type { %struct.Object, %struct.QemuMutex, ptr, ptr, ptr, i32, i32, i8, ptr, ptr, [1 x i64] }
%struct.Object = type { ptr, ptr, ptr, i32, ptr }
%struct.QemuMutex = type { %union.pthread_mutex_t, i8 }
%union.pthread_mutex_t = type { %struct.__pthread_mutex_s }
%struct.__pthread_mutex_s = type { i32, i32, i32, i32, i32, i16, i16, %struct.__pthread_internal_list }
%struct.__pthread_internal_list = type { ptr, ptr }
%struct.CharBackend = type { ptr, ptr, ptr, ptr, ptr, ptr, i32, i32 }
%struct.ChardevInfo = type { ptr, ptr, i8 }
%struct.ChardevInfoList = type { ptr, ptr }

@.str.4 = private unnamed_addr constant [8 x i8] c"chardev\00", align 1
@.str.104 = private unnamed_addr constant [101 x i8] c"/home/dtcxzyw/WorkSpace/Projects/compilers/llvm-opt-benchmark/bench/qemu/qemu/include/chardev/char.h\00", align 1
@__func__.CHARDEV = private unnamed_addr constant [8 x i8] c"CHARDEV\00", align 1

; Function Attrs: nounwind sspstrong uwtable
define internal ptr @CHARDEV(ptr noundef %obj) #0 {
entry:
  %obj.addr = alloca ptr, align 8
  store ptr %obj, ptr %obj.addr, align 8
  %0 = load ptr, ptr %obj.addr, align 8
  %call = call ptr @object_dynamic_cast_assert(ptr noundef %0, ptr noundef @.str.4, ptr noundef @.str.104, i32 noundef 231, ptr noundef @__func__.CHARDEV)
  ret ptr %call
}

; Function Attrs: nounwind sspstrong uwtable
define internal i32 @qmp_query_chardev_foreach(ptr noundef %obj, ptr noundef %data) #0 {
entry:
  %obj.addr = alloca ptr, align 8
  %data.addr = alloca ptr, align 8
  %chr = alloca ptr, align 8
  %list = alloca ptr, align 8
  %value = alloca ptr, align 8
  %_tmp = alloca ptr, align 8
  store ptr %obj, ptr %obj.addr, align 8
  store ptr %data, ptr %data.addr, align 8
  %0 = load ptr, ptr %obj.addr, align 8
  %call = call ptr @CHARDEV(ptr noundef %0)
  store ptr %call, ptr %chr, align 8
  %1 = load ptr, ptr %data.addr, align 8
  store ptr %1, ptr %list, align 8
  %call1 = call noalias ptr @g_malloc0(i64 noundef 24) #16
  store ptr %call1, ptr %value, align 8
  %2 = load ptr, ptr %chr, align 8
  %label = getelementptr inbounds %struct.Chardev, ptr %2, i32 0, i32 3
  %3 = load ptr, ptr %label, align 8
  %call2 = call noalias ptr @g_strdup(ptr noundef %3)
  %4 = load ptr, ptr %value, align 8
  %label3 = getelementptr inbounds %struct.ChardevInfo, ptr %4, i32 0, i32 0
  store ptr %call2, ptr %label3, align 8
  %5 = load ptr, ptr %chr, align 8
  %filename = getelementptr inbounds %struct.Chardev, ptr %5, i32 0, i32 4
  %6 = load ptr, ptr %filename, align 8
  %call4 = call noalias ptr @g_strdup(ptr noundef %6)
  %7 = load ptr, ptr %value, align 8
  %filename5 = getelementptr inbounds %struct.ChardevInfo, ptr %7, i32 0, i32 1
  store ptr %call4, ptr %filename5, align 8
  %8 = load ptr, ptr %chr, align 8
  %be = getelementptr inbounds %struct.Chardev, ptr %8, i32 0, i32 2
  %9 = load ptr, ptr %be, align 8
  %tobool = icmp ne ptr %9, null
  br i1 %tobool, label %land.rhs, label %land.end

land.rhs:                                         ; preds = %entry
  %10 = load ptr, ptr %chr, align 8
  %be6 = getelementptr inbounds %struct.Chardev, ptr %10, i32 0, i32 2
  %11 = load ptr, ptr %be6, align 8
  %fe_open = getelementptr inbounds %struct.CharBackend, ptr %11, i32 0, i32 7
  %12 = load i32, ptr %fe_open, align 4
  %tobool7 = icmp ne i32 %12, 0
  br label %land.end

land.end:                                         ; preds = %land.rhs, %entry
  %13 = phi i1 [ false, %entry ], [ %tobool7, %land.rhs ]
  %14 = load ptr, ptr %value, align 8
  %frontend_open = getelementptr inbounds %struct.ChardevInfo, ptr %14, i32 0, i32 2
  %frombool = zext i1 %13 to i8
  store i8 %frombool, ptr %frontend_open, align 8
  br label %do.body

do.body:                                          ; preds = %land.end
  %call8 = call noalias ptr @g_malloc(i64 noundef 16) #16
  store ptr %call8, ptr %_tmp, align 8
  %15 = load ptr, ptr %value, align 8
  %16 = load ptr, ptr %_tmp, align 8
  %value9 = getelementptr inbounds %struct.ChardevInfoList, ptr %16, i32 0, i32 1
  store ptr %15, ptr %value9, align 8
  %17 = load ptr, ptr %list, align 8
  %18 = load ptr, ptr %17, align 8
  %19 = load ptr, ptr %_tmp, align 8
  %next = getelementptr inbounds %struct.ChardevInfoList, ptr %19, i32 0, i32 0
  store ptr %18, ptr %next, align 8
  %20 = load ptr, ptr %_tmp, align 8
  %21 = load ptr, ptr %list, align 8
  store ptr %20, ptr %21, align 8
  br label %do.end

do.end:                                           ; preds = %do.body
  ret i32 0
}