; Function Attrs: nounwind sspstrong uwtable
define internal noundef i32 @qmp_query_chardev_foreach(ptr noundef %obj, ptr noundef captures(none) %data) #0 {
entry:
  %call.i = tail call ptr @object_dynamic_cast_assert(ptr noundef %obj, ptr noundef nonnull @.str.4, ptr noundef nonnull @.str.104, i32 noundef 231, ptr noundef nonnull @__func__.CHARDEV) #13
  %call1 = tail call noalias dereferenceable_or_null(24) ptr @g_malloc0(i64 noundef 24) #18
  %label = getelementptr inbounds nuw i8, ptr %call.i, i64 96
  %0 = load ptr, ptr %label, align 8
  %call2 = tail call noalias ptr @g_strdup(ptr noundef %0) #13
  store ptr %call2, ptr %call1, align 8
  %filename = getelementptr inbounds nuw i8, ptr %call.i, i64 104
  %1 = load ptr, ptr %filename, align 8
  %call4 = tail call noalias ptr @g_strdup(ptr noundef %1) #13
  %filename5 = getelementptr inbounds nuw i8, ptr %call1, i64 8
  store ptr %call4, ptr %filename5, align 8
  %be = getelementptr inbounds nuw i8, ptr %call.i, i64 88
  %2 = load ptr, ptr %be, align 8
  %tobool.not = icmp eq ptr %2, null
  br i1 %tobool.not, label %land.end, label %land.rhs

land.rhs:                                         ; preds = %entry
  %fe_open = getelementptr inbounds nuw i8, ptr %2, i64 52
  %3 = load i32, ptr %fe_open, align 4
  %tobool7 = icmp ne i32 %3, 0
  %4 = zext i1 %tobool7 to i8
  br label %land.end

land.end:                                         ; preds = %land.rhs, %entry
  %frombool = phi i8 [ 0, %entry ], [ %4, %land.rhs ]
  %frontend_open = getelementptr inbounds nuw i8, ptr %call1, i64 16
  store i8 %frombool, ptr %frontend_open, align 8
  %call8 = tail call noalias dereferenceable_or_null(16) ptr @g_malloc(i64 noundef 16) #18
  %value9 = getelementptr inbounds nuw i8, ptr %call8, i64 8
  store ptr %call1, ptr %value9, align 8
  %5 = load ptr, ptr %data, align 8
  store ptr %5, ptr %call8, align 8
  store ptr %call8, ptr %data, align 8
  ret i32 0
}